target datalayout = "e-m:e-p270:32:32-p271:32:32-p272:64:64-i64:64-i128:128-f80:128-n8:16:32:64-S128"
target triple = "x86_64-pc-linux-gnu"

%"class.ciTypeFlow::JsrSet" = type { [8 x i8], %class.GrowableArray }
%class.GrowableArray = type { %class.GrowableArrayWithAllocator, %class.GrowableArrayMetadata }
%class.GrowableArrayWithAllocator = type { %class.GrowableArrayView }
%class.GrowableArrayView = type { %class.GrowableArrayBase, ptr }
%class.GrowableArrayBase = type { i32, i32 }
%class.GrowableArrayMetadata = type { i64 }
%"class.ciTypeFlow::JsrRecord" = type { i32, i32 }

; Function Attrs: mustprogress nounwind uwtable
define linkonce_odr hidden noundef nonnull align 8 dereferenceable(8) ptr @_ZN17GrowableArrayViewIPN10ciTypeFlow9JsrRecordEE2atEi(ptr noundef nonnull align 8 dereferenceable(16) %0, i32 noundef %1) #1 comdat align 2 {
  %3 = alloca ptr, align 8
  %4 = alloca i32, align 4
  store ptr %0, ptr %3, align 8
  store i32 %1, ptr %4, align 4
  %5 = load ptr, ptr %3, align 8
  %6 = getelementptr inbounds %class.GrowableArrayView, ptr %5, i32 0, i32 1
  %7 = load ptr, ptr %6, align 8
  %8 = load i32, ptr %4, align 4
  %9 = sext i32 %8 to i64
  %10 = getelementptr inbounds ptr, ptr %7, i64 %9
  ret ptr %10
}

; Function Attrs: mustprogress nounwind uwtable
define linkonce_odr hidden noundef i32 @_ZNK17GrowableArrayBase6lengthEv(ptr noundef nonnull align 4 dereferenceable(8) %0) #1 comdat align 2 {
  %2 = alloca ptr, align 8
  store ptr %0, ptr %2, align 8
  %3 = load ptr, ptr %2, align 8
  %4 = getelementptr inbounds %class.GrowableArrayBase, ptr %3, i32 0, i32 0
  %5 = load i32, ptr %4, align 4
  ret i32 %5
}

; Function Attrs: mustprogress nounwind uwtable
define linkonce_odr hidden noundef i32 @_ZNK10ciTypeFlow9JsrRecord14return_addressEv(ptr noundef nonnull align 4 dereferenceable(8) %0) #1 comdat align 2 {
  %2 = alloca ptr, align 8
  store ptr %0, ptr %2, align 8
  %3 = load ptr, ptr %2, align 8
  %4 = getelementptr inbounds %"class.ciTypeFlow::JsrRecord", ptr %3, i32 0, i32 1
  %5 = load i32, ptr %4, align 4
  ret i32 %5
}

; Function Attrs: mustprogress nounwind uwtable
define linkonce_odr hidden noundef i32 @_ZNK10ciTypeFlow9JsrRecord13entry_addressEv(ptr noundef nonnull align 4 dereferenceable(8) %0) #1 comdat align 2 {
  %2 = alloca ptr, align 8
  store ptr %0, ptr %2, align 8
  %3 = load ptr, ptr %2, align 8
  %4 = getelementptr inbounds %"class.ciTypeFlow::JsrRecord", ptr %3, i32 0, i32 0
  %5 = load i32, ptr %4, align 4
  ret i32 %5
}

; Function Attrs: mustprogress nounwind uwtable
define linkonce_odr hidden noundef ptr @_ZN10ciTypeFlow6JsrSet9record_atEi(ptr noundef nonnull align 8 dereferenceable(32) %0, i32 noundef %1) #1 comdat align 2 {
  %3 = alloca ptr, align 8
  %4 = alloca i32, align 4
  store ptr %0, ptr %3, align 8
  store i32 %1, ptr %4, align 4
  %5 = load ptr, ptr %3, align 8
  %6 = getelementptr inbounds %"class.ciTypeFlow::JsrSet", ptr %5, i32 0, i32 1
  %7 = load i32, ptr %4, align 4
  %8 = call noundef nonnull align 8 dereferenceable(8) ptr @_ZN17GrowableArrayViewIPN10ciTypeFlow9JsrRecordEE2atEi(ptr noundef nonnull align 8 dereferenceable(16) %6, i32 noundef %7)
  %9 = load ptr, ptr %8, align 8
  ret ptr %9
}

; Function Attrs: mustprogress nounwind uwtable
define linkonce_odr hidden noundef i32 @_ZNK10ciTypeFlow6JsrSet4sizeEv(ptr noundef nonnull align 8 dereferenceable(32) %0) #1 comdat align 2 {
  %2 = alloca ptr, align 8
  store ptr %0, ptr %2, align 8
  %3 = load ptr, ptr %2, align 8
  %4 = getelementptr inbounds %"class.ciTypeFlow::JsrSet", ptr %3, i32 0, i32 1
  %5 = call noundef i32 @_ZNK17GrowableArrayBase6lengthEv(ptr noundef nonnull align 4 dereferenceable(8) %4)
  ret i32 %5
}

; Function Attrs: mustprogress nounwind uwtable
define hidden noundef zeroext i1 @_ZN10ciTypeFlow6JsrSet18is_compatible_withEPS0_(ptr noundef nonnull align 8 dereferenceable(32) %0, ptr noundef %1) #1 align 2 {
  %3 = alloca i1, align 1
  %4 = alloca ptr, align 8
  %5 = alloca ptr, align 8
  %6 = alloca i32, align 4
  %7 = alloca i32, align 4
  %8 = alloca i32, align 4
  %9 = alloca ptr, align 8
  %10 = alloca ptr, align 8
  store ptr %0, ptr %4, align 8
  store ptr %1, ptr %5, align 8
  %11 = load ptr, ptr %4, align 8
  %12 = call noundef i32 @_ZNK10ciTypeFlow6JsrSet4sizeEv(ptr noundef nonnull align 8 dereferenceable(32) %11)
  store i32 %12, ptr %6, align 4
  %13 = load ptr, ptr %5, align 8
  %14 = call noundef i32 @_ZNK10ciTypeFlow6JsrSet4sizeEv(ptr noundef nonnull align 8 dereferenceable(32) %13)
  store i32 %14, ptr %7, align 4
  %15 = load i32, ptr %7, align 4
  %16 = icmp eq i32 %15, 0
  br i1 %16, label %17, label %18

17:                                               ; preds = %2
  store i1 true, ptr %3, align 1
  br label %51

18:                                               ; preds = %2
  %19 = load i32, ptr %6, align 4
  %20 = load i32, ptr %7, align 4
  %21 = icmp ne i32 %19, %20
  br i1 %21, label %22, label %23

22:                                               ; preds = %18
  store i1 false, ptr %3, align 1
  br label %51

23:                                               ; preds = %18
  store i32 0, ptr %8, align 4
  br label %24

24:                                               ; preds = %47, %23
  %25 = load i32, ptr %8, align 4
  %26 = load i32, ptr %6, align 4
  %27 = icmp slt i32 %25, %26
  br i1 %27, label %28, label %50

28:                                               ; preds = %24
  %29 = load i32, ptr %8, align 4
  %30 = call noundef ptr @_ZN10ciTypeFlow6JsrSet9record_atEi(ptr noundef nonnull align 8 dereferenceable(32) %11, i32 noundef %29)
  store ptr %30, ptr %9, align 8
  %31 = load ptr, ptr %5, align 8
  %32 = load i32, ptr %8, align 4
  %33 = call noundef ptr @_ZN10ciTypeFlow6JsrSet9record_atEi(ptr noundef nonnull align 8 dereferenceable(32) %31, i32 noundef %32)
  store ptr %33, ptr %10, align 8
  %34 = load ptr, ptr %9, align 8
  %35 = call noundef i32 @_ZNK10ciTypeFlow9JsrRecord13entry_addressEv(ptr noundef nonnull align 4 dereferenceable(8) %34)
  %36 = load ptr, ptr %10, align 8
  %37 = call noundef i32 @_ZNK10ciTypeFlow9JsrRecord13entry_addressEv(ptr noundef nonnull align 4 dereferenceable(8) %36)
  %38 = icmp ne i32 %35, %37
  br i1 %38, label %45, label %39

39:                                               ; preds = %28
  %40 = load ptr, ptr %9, align 8
  %41 = call noundef i32 @_ZNK10ciTypeFlow9JsrRecord14return_addressEv(ptr noundef nonnull align 4 dereferenceable(8) %40)
  %42 = load ptr, ptr %10, align 8
  %43 = call noundef i32 @_ZNK10ciTypeFlow9JsrRecord14return_addressEv(ptr noundef nonnull align 4 dereferenceable(8) %42)
  %44 = icmp ne i32 %41, %43
  br i1 %44, label %45, label %46

45:                                               ; preds = %39, %28
  store i1 false, ptr %3, align 1
  br label %51

46:                                               ; preds = %39
  br label %47

47:                                               ; preds = %46
  %48 = load i32, ptr %8, align 4
  %49 = add nsw i32 %48, 1
  store i32 %49, ptr %8, align 4
  br label %24, !llvm.loop !8

50:                                               ; preds = %24
  store i1 true, ptr %3, align 1
  br label %51

51:                                               ; preds = %50, %45, %22, %17
  %52 = load i1, ptr %3, align 1
  ret i1 %52
}