; Function Attrs: mustprogress nofree norecurse nosync nounwind willreturn memory(read, inaccessiblemem: none) uwtable
define hidden noundef zeroext i1 @_ZN10ciTypeFlow6JsrSet18is_compatible_withEPS0_(ptr nocapture noundef nonnull readonly align 8 dereferenceable(32) %0, ptr nocapture noundef readonly %1) local_unnamed_addr #1 align 2 {
  %3 = getelementptr inbounds i8, ptr %0, i64 8
  %4 = load i32, ptr %3, align 8
  %5 = getelementptr inbounds i8, ptr %1, i64 8
  %6 = load i32, ptr %5, align 4
  %7 = icmp eq i32 %6, 0
  br i1 %7, label %.loopexit, label %8

8:                                                ; preds = %2
  %.not = icmp eq i32 %4, %6
  br i1 %.not, label %.preheader, label %.loopexit

.preheader:                                       ; preds = %8
  %9 = icmp sgt i32 %4, 0
  br i1 %9, label %.lr.ph, label %.loopexit

.lr.ph:                                           ; preds = %.preheader
  %10 = getelementptr inbounds i8, ptr %0, i64 16
  %11 = load ptr, ptr %10, align 8
  %12 = getelementptr inbounds i8, ptr %1, i64 16
  %13 = load ptr, ptr %12, align 8
  %wide.trip.count = zext nneg i32 %4 to i64
  br label %15

14:                                               ; preds = %22
  %indvars.iv.next = add nuw nsw i64 %indvars.iv, 1
  %exitcond.not = icmp eq i64 %indvars.iv.next, %wide.trip.count
  br i1 %exitcond.not, label %.loopexit, label %15, !llvm.loop !8

15:                                               ; preds = %.lr.ph, %14
  %indvars.iv = phi i64 [ 0, %.lr.ph ], [ %indvars.iv.next, %14 ]
  %16 = getelementptr inbounds ptr, ptr %11, i64 %indvars.iv
  %17 = load ptr, ptr %16, align 8
  %18 = getelementptr inbounds ptr, ptr %13, i64 %indvars.iv
  %19 = load ptr, ptr %18, align 8
  %20 = load i32, ptr %17, align 4
  %21 = load i32, ptr %19, align 4
  %.not18 = icmp eq i32 %20, %21
  br i1 %.not18, label %22, label %.loopexit

22:                                               ; preds = %15
  %23 = getelementptr inbounds i8, ptr %17, i64 4
  %24 = load i32, ptr %23, align 4
  %25 = getelementptr inbounds i8, ptr %19, i64 4
  %26 = load i32, ptr %25, align 4
  %.not19 = icmp eq i32 %24, %26
  br i1 %.not19, label %14, label %.loopexit

.loopexit:                                        ; preds = %22, %15, %14, %.preheader, %8, %2
  %.0 = phi i1 [ true, %2 ], [ false, %8 ], [ true, %.preheader ], [ false, %22 ], [ false, %15 ], [ true, %14 ]
  ret i1 %.0
}